cdebian_linux.config
ConfigCore
p0
(tRp1
(Vbase
p2
tp3
(dp4
Varches
p5
(lp6
Varm64
p7
aVarmhf
p8
asVfeaturesets
p9
(lp10
Vnone
p11
aVrt
p12
asVcompiler
p13
Vgcc-6
p14
ss(Vbuild
p15
tp16
(dp17
Vsigned-modules
p18
I00
sVdebug-info
p19
I00
ss(Vbase
p20
NVrt
p21
tp22
(dp23
Venabled
p24
I00
ss(Vdescription
p25
tp26
(dp27
Vpart-long-up
p28
VThis kernel is not suitable for SMP (multi-processor,\u000amulti-core or hyper-threaded) systems.
p29
ss(Vrelations
p30
tp31
(dp32
Vinitramfs-tools
p33
Vinitramfs-tools (>= 0.120+deb8u2)
p34
sVgcc-6
p35
Vgcc-6 <!stage1 !cross>, gcc-6-@gnu-type-package@ <!stage1 cross>
p36
sVinitramfs-fallback
p37
Vlinux-initramfs-tool
p38
ss(Vimage
p39
tp40
(dp41
Vinitramfs-generators
p42
(lp43
Vinitramfs-tools
p44
aVinitramfs-fallback
p45
asVrecommends
p46
Vapparmor
p47
ss(Vabi
p48
tp49
(dp50
Vabiname
p51
V1
p52
sVignore-changes
p53
(lp54
V__cpuhp_*
p55
aV__xive_vm_h_*
p56
aVbpf_analyzer
p57
aVcxl_*
p58
aVdax_flush
p59
aVieee80211_nullfunc_get
p60
aVinet_add_protocol
p61
aVinet_del_protocol
p62
aViommu_device_*
p63
aVkvm_async_pf_task_wait
p64
aVkvmppc_*
p65
aVmm_iommu_*
p66
aVmv_mbus_*
p67
aVperf_*
p68
aVregister_cxl_calls
p69
aVregister_key_type
p70
aVunregister_cxl_calls
p71
aV*_hw_breakpoint
p72
aVmodule:arch/x86/kvm/*
p73
aVmodule:drivers/crypto/ccp/*
p74
aVmodule:drivers/hv/*
p75
aVmodule:drivers/iio/common/hid-sensors/*
p76
aVmodule:drivers/iio/common/st_sensors/**
p77
aVmodule:drivers/mtd/nand/*
p78
aVmodule:drivers/net/wireless/**
p79
aVmodule:drivers/nvdimm/*
p80
aVmodule:drivers/power/supply/bq27xxx_battery
p81
aVmodule:drivers/scsi/cxgbi/*
p82
aVmodule:drivers/scsi/libiscs*
p83
aVmodule:drivers/scsi/qla2xxx/qla2xxx
p84
aVmodule:drivers/scsi/ufs/*
p85
aVmodule:drivers/target/**
p86
aVmodule:drivers/usb/chipidea/**
p87
aVmodule:drivers/usb/gadget/**
p88
aVmodule:drivers/usb/host/**
p89
aVmodule:drivers/usb/musb/**
p90
aVmodule:fs/nfs/**
p91
aVmodule:net/ceph/libceph
p92
aVmodule:net/l2tp/**
p93
aVmodule:net/rxrpc/rxrpc
p94
aVmodule:sound/core/seq/**
p95
aVmodule:sound/firewire/snd-firewire-lib
p96
aVbtree_*
p97
aVvisitor*
p98
aVcan_rx_register
p99
aVip6_xmit
p100
aVmodule:net/dccp/dccp
p101
aVmodule:net/rds/rds
p102
aVdevfreq_*
p103
aVdevm_devfreq_*
p104
aVupdate_devfreq
p105
aVmodule:drivers/infiniband/**
p106
aVacpi_ec_add_query_handler
p107
aVacpi_ec_remove_query_handler
p108
aVfirst_ec
p109
aVdebugfs_create_automount
p110
aVmodule:drivers/iio/imu/inv_mpu6050/*
p111
ass(Vbase
p112
Varm64
p113
tp114
(dp115
Vfeaturesets
p116
(lp117
Vnone
p118
asVkernel-arch
p119
Varm64
p120
ss(Vimage
p121
g113
NVarm64
p122
tp123
(dp124
s(Vbuild
p125
g113
tp126
(dp127
Vvdso
p128
I01
sVimage-file
p129
Varch/arm64/boot/Image
p130
sVdebug-info
p131
I01
ss(Vdescription
p132
g113
NVarm64
p133
tp134
(dp135
Vhardware
p136
V64-bit ARMv8 machines
p137
ss(Vimage
p138
g113
tp139
(dp140
Vbreaks
p141
Vlibmozjs185-1.0, libmozjs-24-0 (<< 24.2.0-5.1~)
p142
sVinstall-stem
p143
Vvmlinuz
p144
ss(Vdescription
p145
g113
NVodroid-arm64
p146
tp147
(dp148
Vhardware
p149
VARMv8 multiplatform compatible SoCs
p150
sVhardware-long
p151
VARMv8 multiplatform kernel\u000ahttps://wiki.debian.org/DebianKernel/ARMMP for details of supported\u000aplatforms
p152
ss(Vbase
p153
g113
Vnone
p154
tp155
(dp156
Vflavours
p157
(lp158
Varm64
p159
aVodroid-arm64
p160
ass(Vbase
p161
Varmhf
p162
tp163
(dp164
Vfeaturesets
p165
(lp166
Vnone
p167
asVkernel-arch
p168
Varm
p169
ss(Vdescription
p170
g162
NVarmmp
p171
tp172
(dp173
Vhardware
p174
VARMv7 multiplatform compatible SoCs
p175
sVhardware-long
p176
VARMv7 multiplatform kernel. See\u000ahttps://wiki.debian.org/DebianKernel/ARMMP for details of supported\u000aplatforms
p177
ss(Vbuild
p178
g162
tp179
(dp180
Vvdso
p181
I01
sVimage-file
p182
Varch/arm/boot/zImage
p183
ss(Vdescription
p184
g162
NVarmmp-lpae
p185
tp186
(dp187
Vhardware
p188
VARMv7 multiplatform compatible SoCs supporting LPAE
p189
sVhardware-long
p190
VARMv7 multiplatform kernel supporting LPAE. See\u000ahttps://wiki.debian.org/DebianKernel/ARMMP for details of supported\u000aplatforms.
p191
ss(Vdescription
p192
g162
NVodroid-armmp
p193
tp194
(dp195
Vhardware
p196
VARMv7 multiplatform compatible SoCs
p197
sVhardware-long
p198
VARMv7 multiplatform kernel. See\u000ahttps://wiki.debian.org/DebianKernel/ARMMP for details of supported\u000aplatforms
p199
ss(Vrelations
p200
g162
tp201
(dp202
Vheaders%gcc-6
p203
Vlinux-compiler-gcc-6-arm
p204
ss(Vimage
p205
g162
tp206
(dp207
Vinstall-stem
p208
Vvmlinuz
p209
ss(Vbase
p210
g162
g167
tp211
(dp212
Vflavours
p213
(lp214
Vodroid-armmp
p215
asVimplicit-flavour
p216
I01
ss(Vdescription
p217
NVrt
p218
tp219
(dp220
Vparts
p221
(lp222
Vrt
p223
asVpart-long-rt
p224
VThis kernel includes the PREEMPT_RT realtime patch set.
p225
sVpart-short-rt
p226
VPREEMPT_RT
p227
ss(Vabi
p228
Ng218
tp229
(dp230
Vignore-changes
p231
(lp232
V*
p233
ass(Vversion
p234
tp235
(dp236
Vupstream
p237
V3.16
p238
sVsource
p239
V3.16.56-0
p240
sVabiname
p241
V3.16.0-1
p242
sVabiname_base
p243
V3.16.0
p244
ss.