cdebian_linux.config
ConfigCore
p0
(tRp1
(Vabi
p2
tp3
(dp4
Vabiname
p5
V6
p6
sVignore-changes
p7
(lp8
V__cpuhp_*
p9
aVbpf_analyzer
p10
aVboot_cpu_data
p11
aVcxl_*
p12
aVcpu_info
p13
aVinet_frag_*
p14
aVinet_frags_*
p15
aVx86_hyper
p16
aVx86_hyper_*
p17
aVxen_xlate_map_ballooned_pages
p18
aVmm_iommu_*
p19
aVmv_mbus_*
p20
aVpaca
p21
aVregister_cxl_calls
p22
aVregister_key_type
p23
aVunregister_cxl_calls
p24
aVmodule:arch/x86/kvm/*
p25
aVmodule:drivers/crypto/ccp/*
p26
aVmodule:drivers/hv/*
p27
aVmodule:drivers/iio/common/hid-sensors/*
p28
aVmodule:drivers/iio/common/st_sensors/**
p29
aVmodule:drivers/net/wireless/**
p30
aVmodule:drivers/nvdimm/*
p31
aVmodule:drivers/power/supply/bq27xxx_battery
p32
aVmodule:drivers/s390/net/qeth
p33
aVmodule:drivers/s390/net/qeth*
p34
aVmodule:drivers/scsi/cxgbi/*
p35
aVmodule:drivers/scsi/libiscs*
p36
aVmodule:drivers/scsi/qla2xxx/qla2xxx
p37
aVmodule:drivers/scsi/ufs/*
p38
aVmodule:drivers/target/**
p39
aVmodule:drivers/usb/chipidea/**
p40
aVmodule:drivers/usb/gadget/**
p41
aVmodule:drivers/usb/host/**
p42
aVmodule:drivers/usb/musb/**
p43
aVmodule:fs/nfs/nfs
p44
aVmodule:net/ceph/libceph
p45
aVmodule:net/l2tp/**
p46
aVmodule:sound/firewire/snd-firewire-lib
p47
aVbtree_*
p48
aVvisitor*
p49
aVcan_rx_register
p50
aVip6_xmit
p51
aVmodule:net/dccp/dccp
p52
aVmodule:net/rds/rds
p53
aVdevfreq_*
p54
aVdevm_devfreq_*
p55
aVupdate_devfreq
p56
aVmodule:drivers/infiniband/**
p57
aVacpi_ec_add_query_handler
p58
aVacpi_ec_remove_query_handler
p59
aVfirst_ec
p60
aVdebugfs_create_automount
p61
ass(Vbase
p62
tp63
(dp64
Varches
p65
(lp66
Varm64
p67
aVarmhf
p68
asVcompiler
p69
Vgcc-6
p70
sVfeaturesets
p71
(lp72
Vnone
p73
aVrt
p74
ass(Vbuild
p75
tp76
(dp77
Vdebug-info
p78
I01
sVsigned-modules
p79
I00
ss(Vbase
p80
NVrt
p81
tp82
(dp83
Venabled
p84
I01
ss(Vdescription
p85
tp86
(dp87
Vpart-long-up
p88
VThis kernel is not suitable for SMP (multi-processor,\u000amulti-core or hyper-threaded) systems.
p89
sVpart-long-xen
p90
VThis kernel also runs on a Xen hypervisor.\u000aIt supports both privileged (dom0) and unprivileged (domU) operation.
p91
ss(Vimage
p92
tp93
(dp94
Vinitramfs-generators
p95
(lp96
Vinitramfs-tools
p97
aVinitramfs-fallback
p98
ass(Vrelations
p99
tp100
(dp101
Vgcc-6
p102
Vgcc-6 <!stage1 !cross>, gcc-6-@gnu-type-package@ <!stage1 cross>
p103
sVinitramfs-fallback
p104
Vlinux-initramfs-tool
p105
sVinitramfs-tools
p106
Vinitramfs-tools (>= 0.120+deb8u2)
p107
ss(Vbase
p108
Varm64
p109
tp110
(dp111
Vkernel-arch
p112
Varm64
p113
sVfeaturesets
p114
(lp115
Vnone
p116
ass(Vbuild
p117
g109
tp118
(dp119
Vdebug-info
p120
I01
sVimage-file
p121
Varch/arm64/boot/Image
p122
sVvdso
p123
I01
ss(Vimage
p124
g109
tp125
(dp126
Vinstall-stem
p127
Vvmlinuz
p128
sVbreaks
p129
Vlibmozjs185-1.0, libmozjs-24-0 (<< 24.2.0-5.1~)
p130
ss(Vdescription
p131
g109
NVodroid-arm64
p132
tp133
(dp134
Vhardware
p135
V64-bit ARMv8 machines
p136
ss(Vimage
p137
g109
NVarm64
p138
tp139
(dp140
s(Vbase
p141
g109
g116
tp142
(dp143
Vflavours
p144
(lp145
Vodroid-arm64
p146
asVimplicit-flavour
p147
I01
ss(Vbase
p148
Varmhf
p149
tp150
(dp151
Vkernel-arch
p152
Varm
p153
sg114
(lp154
g116
ass(Vbuild
p155
g149
tp156
(dp157
Vimage-file
p158
Varch/arm/boot/zImage
p159
sVvdso
p160
I01
ss(Vimage
p161
g149
tp162
(dp163
Vinstall-stem
p164
Vvmlinuz
p165
ss(Vrelations
p166
g149
tp167
(dp168
Vheaders%gcc-6
p169
Vlinux-compiler-gcc-6-arm
p170
ss(Vdescription
p171
g149
NVodroid-armmp
p172
tp173
(dp174
Vhardware
p175
VARMv7 multiplatform compatible SoCs
p176
sVhardware-long
p177
VARMv7 multiplatform kernel. See\u000ahttps://wiki.debian.org/DebianKernel/ARMMP for details of supported\u000aplatforms
p178
ss(Vdescription
p179
g149
NVodroid-armmp-lpae
p180
tp181
(dp182
Vhardware
p183
VARMv7 multiplatform compatible SoCs supporting LPAE
p184
sVhardware-long
p185
VARMv7 multiplatform kernel supporting LPAE. See\u000ahttps://wiki.debian.org/DebianKernel/ARMMP for details of supported\u000aplatforms.
p186
ss(g141
g149
g116
tp187
(dp188
g144
(lp189
Vodroid-armmp
p190
aVodroid-armmp-lpae
p191
asg147
I01
ss(Vabi
p192
NVrt
p193
tp194
(dp195
Vignore-changes
p196
(lp197
V*
p198
ass(Vdescription
p199
Ng193
tp200
(dp201
Vpart-long-rt
p202
VThis kernel includes the PREEMPT_RT realtime patch set.
p203
sVpart-short-rt
p204
VPREEMPT_RT
p205
sVparts
p206
(lp207
Vrt
p208
ass(Vversion
p209
tp210
(dp211
Vsource
p212
V3.16.0-0
p213
sVupstream
p214
V3.16
p215
sVabiname_base
p216
V3.16.0
p217
sVabiname
p218
V3.16.0-6
p219
ss.