cdebian_linux.config
ConfigCore
p0
(tRp1
(Vbase
p2
tp3
(dp4
Varches
p5
(lp6
Varmhf
p7
asVfeaturesets
p8
(lp9
Vnone
p10
aVrt
p11
asVcompiler
p12
Vgcc-6
p13
ss(Vbuild
p14
tp15
(dp16
Vsigned-modules
p17
I00
sVdebug-info
p18
I00
ss(Vbase
p19
NVrt
p20
tp21
(dp22
Venabled
p23
I00
ss(Vdescription
p24
tp25
(dp26
Vpart-long-up
p27
VThis kernel is not suitable for SMP (multi-processor,\u000amulti-core or hyper-threaded) systems.
p28
ss(Vrelations
p29
tp30
(dp31
Vinitramfs-tools
p32
Vinitramfs-tools (>= 0.120+deb8u2)
p33
sVgcc-6
p34
Vgcc-6 <!stage1 !cross>, gcc-6-@gnu-type-package@ <!stage1 cross>
p35
sVinitramfs-fallback
p36
Vlinux-initramfs-tool
p37
ss(Vimage
p38
tp39
(dp40
Vinitramfs-generators
p41
(lp42
Vinitramfs-tools
p43
aVinitramfs-fallback
p44
asVrecommends
p45
Vapparmor
p46
ss(Vabi
p47
tp48
(dp49
Vabiname
p50
V1
p51
sVignore-changes
p52
(lp53
V__cpuhp_*
p54
aV__xive_vm_h_*
p55
aVbpf_analyzer
p56
aVcxl_*
p57
aVdax_flush
p58
aVieee80211_nullfunc_get
p59
aVinet_add_protocol
p60
aVinet_del_protocol
p61
aViommu_device_*
p62
aVkvm_async_pf_task_wait
p63
aVkvmppc_*
p64
aVmm_iommu_*
p65
aVmv_mbus_*
p66
aVperf_*
p67
aVregister_cxl_calls
p68
aVregister_key_type
p69
aVunregister_cxl_calls
p70
aV*_hw_breakpoint
p71
aVmodule:arch/x86/kvm/*
p72
aVmodule:drivers/crypto/ccp/*
p73
aVmodule:drivers/hv/*
p74
aVmodule:drivers/iio/common/hid-sensors/*
p75
aVmodule:drivers/iio/common/st_sensors/**
p76
aVmodule:drivers/mtd/nand/*
p77
aVmodule:drivers/net/wireless/**
p78
aVmodule:drivers/nvdimm/*
p79
aVmodule:drivers/power/supply/bq27xxx_battery
p80
aVmodule:drivers/scsi/cxgbi/*
p81
aVmodule:drivers/scsi/libiscs*
p82
aVmodule:drivers/scsi/qla2xxx/qla2xxx
p83
aVmodule:drivers/scsi/ufs/*
p84
aVmodule:drivers/target/**
p85
aVmodule:drivers/usb/chipidea/**
p86
aVmodule:drivers/usb/gadget/**
p87
aVmodule:drivers/usb/host/**
p88
aVmodule:drivers/usb/musb/**
p89
aVmodule:fs/nfs/**
p90
aVmodule:net/ceph/libceph
p91
aVmodule:net/l2tp/**
p92
aVmodule:net/rxrpc/rxrpc
p93
aVmodule:sound/core/seq/**
p94
aVmodule:sound/firewire/snd-firewire-lib
p95
aVbtree_*
p96
aVvisitor*
p97
aVcan_rx_register
p98
aVip6_xmit
p99
aVmodule:net/dccp/dccp
p100
aVmodule:net/rds/rds
p101
aVdevfreq_*
p102
aVdevm_devfreq_*
p103
aVupdate_devfreq
p104
aVmodule:drivers/infiniband/**
p105
aVacpi_ec_add_query_handler
p106
aVacpi_ec_remove_query_handler
p107
aVfirst_ec
p108
aVdebugfs_create_automount
p109
aVmodule:drivers/iio/imu/inv_mpu6050/*
p110
ass(Vbase
p111
Varmhf
p112
tp113
(dp114
Vfeaturesets
p115
(lp116
Vnone
p117
asVkernel-arch
p118
Varm
p119
ss(Vdescription
p120
g112
NVarmmp
p121
tp122
(dp123
Vhardware
p124
VARMv7 multiplatform compatible SoCs
p125
sVhardware-long
p126
VARMv7 multiplatform kernel. See\u000ahttps://wiki.debian.org/DebianKernel/ARMMP for details of supported\u000aplatforms
p127
ss(Vbuild
p128
g112
tp129
(dp130
Vvdso
p131
I01
sVimage-file
p132
Varch/arm/boot/zImage
p133
ss(Vdescription
p134
g112
NVarmmp-lpae
p135
tp136
(dp137
Vhardware
p138
VARMv7 multiplatform compatible SoCs supporting LPAE
p139
sVhardware-long
p140
VARMv7 multiplatform kernel supporting LPAE. See\u000ahttps://wiki.debian.org/DebianKernel/ARMMP for details of supported\u000aplatforms.
p141
ss(Vdescription
p142
g112
NVodroid-armmp
p143
tp144
(dp145
Vhardware
p146
VARMv7 multiplatform compatible SoCs
p147
sVhardware-long
p148
VARMv7 multiplatform kernel. See\u000ahttps://wiki.debian.org/DebianKernel/ARMMP for details of supported\u000aplatforms
p149
ss(Vrelations
p150
g112
tp151
(dp152
Vheaders%gcc-6
p153
Vlinux-compiler-gcc-6-arm
p154
ss(Vimage
p155
g112
tp156
(dp157
Vinstall-stem
p158
Vvmlinuz
p159
ss(Vbase
p160
g112
g117
tp161
(dp162
Vflavours
p163
(lp164
Vodroid-armmp
p165
asVimplicit-flavour
p166
I01
ss(Vdescription
p167
NVrt
p168
tp169
(dp170
Vparts
p171
(lp172
Vrt
p173
asVpart-long-rt
p174
VThis kernel includes the PREEMPT_RT realtime patch set.
p175
sVpart-short-rt
p176
VPREEMPT_RT
p177
ss(Vabi
p178
Ng168
tp179
(dp180
Vignore-changes
p181
(lp182
V*
p183
ass(Vversion
p184
tp185
(dp186
Vupstream
p187
V4.14.35
p188
sVsource
p189
V4.14.35-0
p190
sVabiname
p191
V4.14.35-1
p192
sVabiname_base
p193
g188
ss.