cdebian_linux.config
ConfigCore
p0
(tRp1
(Vabi
p2
tp3
(dp4
Vabiname
p5
V1
p6
sVignore-changes
p7
(lp8
V__cpuhp_*
p9
aV__xive_vm_h_*
p10
aVbpf_analyzer
p11
aVcxl_*
p12
aVdax_flush
p13
aVieee80211_nullfunc_get
p14
aVinet_add_protocol
p15
aVinet_del_protocol
p16
aViommu_device_*
p17
aVkvm_async_pf_task_wait
p18
aVkvmppc_*
p19
aVmm_iommu_*
p20
aVmv_mbus_*
p21
aVperf_*
p22
aVregister_cxl_calls
p23
aVregister_key_type
p24
aVunregister_cxl_calls
p25
aV*_hw_breakpoint
p26
aVmodule:arch/x86/kvm/*
p27
aVmodule:drivers/crypto/ccp/*
p28
aVmodule:drivers/hv/*
p29
aVmodule:drivers/iio/common/hid-sensors/*
p30
aVmodule:drivers/iio/common/st_sensors/**
p31
aVmodule:drivers/mtd/nand/*
p32
aVmodule:drivers/net/wireless/**
p33
aVmodule:drivers/nvdimm/*
p34
aVmodule:drivers/power/supply/bq27xxx_battery
p35
aVmodule:drivers/scsi/cxgbi/*
p36
aVmodule:drivers/scsi/libiscs*
p37
aVmodule:drivers/scsi/qla2xxx/qla2xxx
p38
aVmodule:drivers/scsi/ufs/*
p39
aVmodule:drivers/target/**
p40
aVmodule:drivers/usb/chipidea/**
p41
aVmodule:drivers/usb/gadget/**
p42
aVmodule:drivers/usb/host/**
p43
aVmodule:drivers/usb/musb/**
p44
aVmodule:fs/nfs/**
p45
aVmodule:net/ceph/libceph
p46
aVmodule:net/l2tp/**
p47
aVmodule:net/rxrpc/rxrpc
p48
aVmodule:sound/core/seq/**
p49
aVmodule:sound/firewire/snd-firewire-lib
p50
aVbtree_*
p51
aVvisitor*
p52
aVcan_rx_register
p53
aVip6_xmit
p54
aVmodule:net/dccp/dccp
p55
aVmodule:net/rds/rds
p56
aVdevfreq_*
p57
aVdevm_devfreq_*
p58
aVupdate_devfreq
p59
aVmodule:drivers/infiniband/**
p60
aVacpi_ec_add_query_handler
p61
aVacpi_ec_remove_query_handler
p62
aVfirst_ec
p63
aVdebugfs_create_automount
p64
aVmodule:drivers/iio/imu/inv_mpu6050/*
p65
ass(Vbase
p66
tp67
(dp68
Varches
p69
(lp70
Varmhf
p71
asVcompiler
p72
Vgcc-6
p73
sVfeaturesets
p74
(lp75
Vnone
p76
aVrt
p77
ass(Vbuild
p78
tp79
(dp80
Vdebug-info
p81
I00
sVsigned-modules
p82
I00
ss(Vbase
p83
NVrt
p84
tp85
(dp86
Venabled
p87
I00
ss(Vdescription
p88
tp89
(dp90
Vpart-long-up
p91
VThis kernel is not suitable for SMP (multi-processor,\u000amulti-core or hyper-threaded) systems.
p92
ss(Vimage
p93
tp94
(dp95
Vinitramfs-generators
p96
(lp97
Vinitramfs-tools
p98
aVinitramfs-fallback
p99
asVrecommends
p100
Vapparmor
p101
ss(Vrelations
p102
tp103
(dp104
Vgcc-6
p105
Vgcc-6 <!stage1 !cross>, gcc-6-@gnu-type-package@ <!stage1 cross>
p106
sVinitramfs-fallback
p107
Vlinux-initramfs-tool
p108
sVinitramfs-tools
p109
Vinitramfs-tools (>= 0.120+deb8u2)
p110
ss(Vbase
p111
Varmhf
p112
tp113
(dp114
Vkernel-arch
p115
Varm
p116
sVfeaturesets
p117
(lp118
Vnone
p119
ass(Vbuild
p120
g112
tp121
(dp122
Vimage-file
p123
Varch/arm/boot/zImage
p124
sVvdso
p125
I01
ss(Vimage
p126
g112
tp127
(dp128
Vinstall-stem
p129
Vvmlinuz
p130
ss(Vrelations
p131
g112
tp132
(dp133
Vheaders%gcc-6
p134
Vlinux-compiler-gcc-6-arm
p135
ss(Vdescription
p136
g112
NVarmmp
p137
tp138
(dp139
Vhardware
p140
VARMv7 multiplatform compatible SoCs
p141
sVhardware-long
p142
VARMv7 multiplatform kernel. See\u000ahttps://wiki.debian.org/DebianKernel/ARMMP for details of supported\u000aplatforms
p143
ss(Vdescription
p144
g112
NVarmmp-lpae
p145
tp146
(dp147
Vhardware
p148
VARMv7 multiplatform compatible SoCs supporting LPAE
p149
sVhardware-long
p150
VARMv7 multiplatform kernel supporting LPAE. See\u000ahttps://wiki.debian.org/DebianKernel/ARMMP for details of supported\u000aplatforms.
p151
ss(Vdescription
p152
g112
NVodroid-armmp
p153
tp154
(dp155
Vhardware
p156
VARMv7 multiplatform compatible SoCs
p157
sVhardware-long
p158
VARMv7 multiplatform kernel. See\u000ahttps://wiki.debian.org/DebianKernel/ARMMP for details of supported\u000aplatforms
p159
ss(Vbase
p160
g112
g119
tp161
(dp162
Vflavours
p163
(lp164
Vodroid-armmp
p165
asVimplicit-flavour
p166
I01
ss(Vabi
p167
NVrt
p168
tp169
(dp170
Vignore-changes
p171
(lp172
V*
p173
ass(Vdescription
p174
Ng168
tp175
(dp176
Vpart-long-rt
p177
VThis kernel includes the PREEMPT_RT realtime patch set.
p178
sVpart-short-rt
p179
VPREEMPT_RT
p180
sVparts
p181
(lp182
Vrt
p183
ass(Vversion
p184
tp185
(dp186
Vsource
p187
V4.14.37-0
p188
sVupstream
p189
V4.14.37
p190
sVabiname_base
p191
g190
sVabiname
p192
V4.14.37-1
p193
ss.