cdebian_linux.config
ConfigCore
p0
(tRp1
(Vabi
p2
tp3
(dp4
Vabiname
p5
V1
p6
sVignore-changes
p7
(lp8
V__cpuhp_*
p9
aV__xive_vm_h_*
p10
aVbpf_analyzer
p11
aVcxl_*
p12
aVdax_flush
p13
aVieee80211_nullfunc_get
p14
aVinet_add_protocol
p15
aVinet_del_protocol
p16
aViommu_device_*
p17
aVkvm_async_pf_task_wait
p18
aVkvmppc_*
p19
aVmm_iommu_*
p20
aVmv_mbus_*
p21
aVperf_*
p22
aVregister_cxl_calls
p23
aVregister_key_type
p24
aVunregister_cxl_calls
p25
aV*_hw_breakpoint
p26
aVmodule:arch/x86/kvm/*
p27
aVmodule:drivers/crypto/ccp/*
p28
aVmodule:drivers/hv/*
p29
aVmodule:drivers/iio/common/hid-sensors/*
p30
aVmodule:drivers/iio/common/st_sensors/**
p31
aVmodule:drivers/mtd/nand/*
p32
aVmodule:drivers/net/wireless/**
p33
aVmodule:drivers/nvdimm/*
p34
aVmodule:drivers/power/supply/bq27xxx_battery
p35
aVmodule:drivers/scsi/cxgbi/*
p36
aVmodule:drivers/scsi/libiscs*
p37
aVmodule:drivers/scsi/qla2xxx/qla2xxx
p38
aVmodule:drivers/scsi/ufs/*
p39
aVmodule:drivers/target/**
p40
aVmodule:drivers/usb/chipidea/**
p41
aVmodule:drivers/usb/gadget/**
p42
aVmodule:drivers/usb/host/**
p43
aVmodule:drivers/usb/musb/**
p44
aVmodule:fs/nfs/**
p45
aVmodule:net/ceph/libceph
p46
aVmodule:net/l2tp/**
p47
aVmodule:net/rxrpc/rxrpc
p48
aVmodule:sound/core/seq/**
p49
aVmodule:sound/firewire/snd-firewire-lib
p50
aVbtree_*
p51
aVvisitor*
p52
aVcan_rx_register
p53
aVip6_xmit
p54
aVmodule:net/dccp/dccp
p55
aVmodule:net/rds/rds
p56
aVdevfreq_*
p57
aVdevm_devfreq_*
p58
aVupdate_devfreq
p59
aVmodule:drivers/infiniband/**
p60
aVacpi_ec_add_query_handler
p61
aVacpi_ec_remove_query_handler
p62
aVfirst_ec
p63
aVdebugfs_create_automount
p64
aVmodule:drivers/iio/imu/inv_mpu6050/*
p65
ass(Vbase
p66
tp67
(dp68
Varches
p69
(lp70
Varm64
p71
asVcompiler
p72
Vgcc-6
p73
sVfeaturesets
p74
(lp75
Vnone
p76
aVrt
p77
ass(Vbuild
p78
tp79
(dp80
Vdebug-info
p81
I00
sVsigned-modules
p82
I00
ss(Vbase
p83
NVrt
p84
tp85
(dp86
Venabled
p87
I00
ss(Vdescription
p88
tp89
(dp90
Vpart-long-up
p91
VThis kernel is not suitable for SMP (multi-processor,\u000amulti-core or hyper-threaded) systems.
p92
ss(Vimage
p93
tp94
(dp95
Vinitramfs-generators
p96
(lp97
Vinitramfs-tools
p98
aVinitramfs-fallback
p99
asVrecommends
p100
Vapparmor
p101
ss(Vrelations
p102
tp103
(dp104
Vgcc-6
p105
Vgcc-6 <!stage1 !cross>, gcc-6-@gnu-type-package@ <!stage1 cross>
p106
sVinitramfs-fallback
p107
Vlinux-initramfs-tool
p108
sVinitramfs-tools
p109
Vinitramfs-tools (>= 0.120+deb8u2)
p110
ss(Vbase
p111
Varm64
p112
tp113
(dp114
Vkernel-arch
p115
Varm64
p116
sVfeaturesets
p117
(lp118
Vnone
p119
ass(Vbuild
p120
g112
tp121
(dp122
Vdebug-info
p123
I01
sVimage-file
p124
Varch/arm64/boot/Image
p125
sVvdso
p126
I01
ss(Vimage
p127
g112
tp128
(dp129
Vinstall-stem
p130
Vvmlinuz
p131
sVbreaks
p132
Vlibmozjs185-1.0, libmozjs-24-0 (<< 24.2.0-5.1~)
p133
ss(Vdescription
p134
g112
NVarm64
p135
tp136
(dp137
Vhardware
p138
V64-bit ARMv8 machines
p139
ss(Vdescription
p140
g112
NVodroid-arm64
p141
tp142
(dp143
Vhardware
p144
VARMv8 multiplatform compatible SoCs
p145
sVhardware-long
p146
VARMv8 multiplatform kernel\u000ahttps://wiki.debian.org/DebianKernel/ARMMP for details of supported\u000aplatforms
p147
ss(Vimage
p148
g112
NVarm64
p149
tp150
(dp151
s(Vbase
p152
g112
Vnone
p153
tp154
(dp155
Vflavours
p156
(lp157
Vodroid-arm64
p158
ass(Vabi
p159
NVrt
p160
tp161
(dp162
Vignore-changes
p163
(lp164
V*
p165
ass(Vdescription
p166
Ng160
tp167
(dp168
Vpart-long-rt
p169
VThis kernel includes the PREEMPT_RT realtime patch set.
p170
sVpart-short-rt
p171
VPREEMPT_RT
p172
sVparts
p173
(lp174
Vrt
p175
ass(Vversion
p176
tp177
(dp178
Vsource
p179
V3.16.56-0
p180
sVupstream
p181
V3.16
p182
sVabiname_base
p183
V3.16.0
p184
sVabiname
p185
V3.16.0-1
p186
ss.