cdebian_linux.config
ConfigCore
p0
(tRp1
(Vabi
p2
tp3
(dp4
Vabiname
p5
V1
p6
sVignore-changes
p7
(lp8
V__cpuhp_*
p9
aV__xive_vm_h_*
p10
aVbpf_analyzer
p11
aVcxl_*
p12
aVdax_flush
p13
aVieee80211_nullfunc_get
p14
aVinet_add_protocol
p15
aVinet_del_protocol
p16
aViommu_device_*
p17
aVkvm_async_pf_task_wait
p18
aVkvmppc_*
p19
aVmm_iommu_*
p20
aVmv_mbus_*
p21
aVperf_*
p22
aVregister_cxl_calls
p23
aVregister_key_type
p24
aVunregister_cxl_calls
p25
aV*_hw_breakpoint
p26
aVmodule:arch/x86/kvm/*
p27
aVmodule:drivers/crypto/ccp/*
p28
aVmodule:drivers/hv/*
p29
aVmodule:drivers/iio/common/hid-sensors/*
p30
aVmodule:drivers/iio/common/st_sensors/**
p31
aVmodule:drivers/mtd/nand/*
p32
aVmodule:drivers/net/wireless/**
p33
aVmodule:drivers/nvdimm/*
p34
aVmodule:drivers/power/supply/bq27xxx_battery
p35
aVmodule:drivers/scsi/cxgbi/*
p36
aVmodule:drivers/scsi/libiscs*
p37
aVmodule:drivers/scsi/qla2xxx/qla2xxx
p38
aVmodule:drivers/scsi/ufs/*
p39
aVmodule:drivers/target/**
p40
aVmodule:drivers/usb/chipidea/**
p41
aVmodule:drivers/usb/gadget/**
p42
aVmodule:drivers/usb/host/**
p43
aVmodule:drivers/usb/musb/**
p44
aVmodule:fs/nfs/**
p45
aVmodule:net/ceph/libceph
p46
aVmodule:net/l2tp/**
p47
aVmodule:net/rxrpc/rxrpc
p48
aVmodule:sound/core/seq/**
p49
aVmodule:sound/firewire/snd-firewire-lib
p50
aVbtree_*
p51
aVvisitor*
p52
aVcan_rx_register
p53
aVip6_xmit
p54
aVmodule:net/dccp/dccp
p55
aVmodule:net/rds/rds
p56
aVdevfreq_*
p57
aVdevm_devfreq_*
p58
aVupdate_devfreq
p59
aVmodule:drivers/infiniband/**
p60
aVacpi_ec_add_query_handler
p61
aVacpi_ec_remove_query_handler
p62
aVfirst_ec
p63
aVdebugfs_create_automount
p64
aVmodule:drivers/iio/imu/inv_mpu6050/*
p65
ass(Vbase
p66
tp67
(dp68
Varches
p69
(lp70
Varm64
p71
aVarmhf
p72
asVcompiler
p73
Vgcc-6
p74
sVfeaturesets
p75
(lp76
Vnone
p77
aVrt
p78
ass(Vbuild
p79
tp80
(dp81
Vdebug-info
p82
I00
sVsigned-modules
p83
I00
ss(Vbase
p84
NVrt
p85
tp86
(dp87
Venabled
p88
I00
ss(Vdescription
p89
tp90
(dp91
Vpart-long-up
p92
VThis kernel is not suitable for SMP (multi-processor,\u000amulti-core or hyper-threaded) systems.
p93
ss(Vimage
p94
tp95
(dp96
Vinitramfs-generators
p97
(lp98
Vinitramfs-tools
p99
aVinitramfs-fallback
p100
asVrecommends
p101
Vapparmor
p102
ss(Vrelations
p103
tp104
(dp105
Vgcc-6
p106
Vgcc-6 <!stage1 !cross>, gcc-6-@gnu-type-package@ <!stage1 cross>
p107
sVinitramfs-fallback
p108
Vlinux-initramfs-tool
p109
sVinitramfs-tools
p110
Vinitramfs-tools (>= 0.120+deb8u2)
p111
ss(Vbase
p112
Varm64
p113
tp114
(dp115
Vkernel-arch
p116
Varm64
p117
sVfeaturesets
p118
(lp119
Vnone
p120
ass(Vbuild
p121
g113
tp122
(dp123
Vdebug-info
p124
I01
sVimage-file
p125
Varch/arm64/boot/Image
p126
sVvdso
p127
I01
ss(Vimage
p128
g113
tp129
(dp130
Vinstall-stem
p131
Vvmlinuz
p132
sVbreaks
p133
Vlibmozjs185-1.0, libmozjs-24-0 (<< 24.2.0-5.1~)
p134
ss(Vdescription
p135
g113
NVarm64
p136
tp137
(dp138
Vhardware
p139
V64-bit ARMv8 machines
p140
ss(Vdescription
p141
g113
NVodroid-arm64
p142
tp143
(dp144
Vhardware
p145
VARMv8 multiplatform compatible SoCs
p146
sVhardware-long
p147
VARMv8 multiplatform kernel\u000ahttps://wiki.debian.org/DebianKernel/ARMMP for details of supported\u000aplatforms
p148
ss(Vimage
p149
g113
NVarm64
p150
tp151
(dp152
s(Vbase
p153
g113
Vnone
p154
tp155
(dp156
Vflavours
p157
(lp158
Vodroid-arm64
p159
ass(Vbase
p160
Varmhf
p161
tp162
(dp163
Vkernel-arch
p164
Varm
p165
sVfeaturesets
p166
(lp167
Vnone
p168
ass(Vbuild
p169
g161
tp170
(dp171
Vimage-file
p172
Varch/arm/boot/zImage
p173
sVvdso
p174
I01
ss(Vimage
p175
g161
tp176
(dp177
Vinstall-stem
p178
Vvmlinuz
p179
ss(Vrelations
p180
g161
tp181
(dp182
Vheaders%gcc-6
p183
Vlinux-compiler-gcc-6-arm
p184
ss(Vdescription
p185
g161
NVarmmp
p186
tp187
(dp188
Vhardware
p189
VARMv7 multiplatform compatible SoCs
p190
sVhardware-long
p191
VARMv7 multiplatform kernel. See\u000ahttps://wiki.debian.org/DebianKernel/ARMMP for details of supported\u000aplatforms
p192
ss(Vdescription
p193
g161
NVarmmp-lpae
p194
tp195
(dp196
Vhardware
p197
VARMv7 multiplatform compatible SoCs supporting LPAE
p198
sVhardware-long
p199
VARMv7 multiplatform kernel supporting LPAE. See\u000ahttps://wiki.debian.org/DebianKernel/ARMMP for details of supported\u000aplatforms.
p200
ss(Vdescription
p201
g161
NVodroid-armmp
p202
tp203
(dp204
Vhardware
p205
VARMv7 multiplatform compatible SoCs
p206
sVhardware-long
p207
VARMv7 multiplatform kernel. See\u000ahttps://wiki.debian.org/DebianKernel/ARMMP for details of supported\u000aplatforms
p208
ss(Vbase
p209
g161
g168
tp210
(dp211
Vflavours
p212
(lp213
Vodroid-armmp
p214
asVimplicit-flavour
p215
I01
ss(Vabi
p216
NVrt
p217
tp218
(dp219
Vignore-changes
p220
(lp221
V*
p222
ass(Vdescription
p223
Ng217
tp224
(dp225
Vpart-long-rt
p226
VThis kernel includes the PREEMPT_RT realtime patch set.
p227
sVpart-short-rt
p228
VPREEMPT_RT
p229
sVparts
p230
(lp231
Vrt
p232
ass(Vversion
p233
tp234
(dp235
Vsource
p236
V4.17.0~rc3-1
p237
sVupstream
p238
V4.17.0
p239
sVabiname_base
p240
g239
sVabiname
p241
g239
ss.